target datalayout = "e-m:e-p270:32:32-p271:32:32-p272:64:64-i64:64-i128:128-f80:128-n8:16:32:64-S128"
target triple = "x86_64-pc-linux-gnu"

%"class.__gnu_cxx::__normal_iterator.36" = type { ptr }
%"class.zxing::Ref.21" = type { ptr }
%"class.zxing::Counted" = type <{ ptr, i32, [4 x i8] }>
%"struct.__gnu_cxx::__ops::_Iter_comp_iter.86" = type { %"class.zxing::qrcode::(anonymous namespace)::XComparator" }
%"class.zxing::qrcode::(anonymous namespace)::XComparator" = type { i8 }

; Function Attrs: mustprogress nounwind uwtable
define linkonce_odr hidden noundef ptr @_ZN5zxing7Counted6retainEv(ptr noundef nonnull align 8 dereferenceable(12) %0) #1 comdat align 2 {
  %2 = alloca ptr, align 8
  store ptr %0, ptr %2, align 8
  %3 = load ptr, ptr %2, align 8
  %4 = getelementptr inbounds %"class.zxing::Counted", ptr %3, i32 0, i32 1
  %5 = load i32, ptr %4, align 8
  %6 = add i32 %5, 1
  store i32 %6, ptr %4, align 8
  ret ptr %3
}

; Function Attrs: mustprogress nounwind uwtable
define linkonce_odr hidden void @_ZN5zxing7Counted7releaseEv(ptr noundef nonnull align 8 dereferenceable(12) %0) #1 comdat align 2 {
  %2 = alloca ptr, align 8
  store ptr %0, ptr %2, align 8
  %3 = load ptr, ptr %2, align 8
  %4 = getelementptr inbounds %"class.zxing::Counted", ptr %3, i32 0, i32 1
  %5 = load i32, ptr %4, align 8
  %6 = add i32 %5, -1
  store i32 %6, ptr %4, align 8
  %7 = getelementptr inbounds %"class.zxing::Counted", ptr %3, i32 0, i32 1
  %8 = load i32, ptr %7, align 8
  %9 = icmp eq i32 %8, 0
  br i1 %9, label %10, label %18

10:                                               ; preds = %1
  %11 = getelementptr inbounds %"class.zxing::Counted", ptr %3, i32 0, i32 1
  store i32 -559026175, ptr %11, align 8
  %12 = icmp eq ptr %3, null
  br i1 %12, label %17, label %13

13:                                               ; preds = %10
  %14 = load ptr, ptr %3, align 8
  %15 = getelementptr inbounds ptr, ptr %14, i64 1
  %16 = load ptr, ptr %15, align 8
  call void %16(ptr noundef nonnull align 8 dereferenceable(12) %3) #12
  br label %17

17:                                               ; preds = %13, %10
  br label %18

18:                                               ; preds = %17, %1
  ret void
}

; Function Attrs: mustprogress nounwind uwtable
define linkonce_odr hidden noundef ptr @_ZNK5zxing3RefINS_6qrcode13FinderPatternEEptEv(ptr noundef nonnull align 8 dereferenceable(8) %0) #1 comdat align 2 {
  %2 = alloca ptr, align 8
  store ptr %0, ptr %2, align 8
  %3 = load ptr, ptr %2, align 8
  %4 = getelementptr inbounds %"class.zxing::Ref.21", ptr %3, i32 0, i32 0
  %5 = load ptr, ptr %4, align 8
  ret ptr %5
}

; Function Attrs: mustprogress nounwind uwtable
define linkonce_odr hidden void @_ZN5zxing3RefINS_6qrcode13FinderPatternEE5resetEPS2_(ptr noundef nonnull align 8 dereferenceable(8) %0, ptr noundef %1) #1 comdat align 2 {
  %3 = alloca ptr, align 8
  %4 = alloca ptr, align 8
  store ptr %0, ptr %3, align 8
  store ptr %1, ptr %4, align 8
  %5 = load ptr, ptr %3, align 8
  %6 = load ptr, ptr %4, align 8
  %7 = icmp ne ptr %6, null
  br i1 %7, label %8, label %11

8:                                                ; preds = %2
  %9 = load ptr, ptr %4, align 8
  %10 = call noundef ptr @_ZN5zxing7Counted6retainEv(ptr noundef nonnull align 8 dereferenceable(12) %9)
  br label %11

11:                                               ; preds = %8, %2
  %12 = getelementptr inbounds %"class.zxing::Ref.21", ptr %5, i32 0, i32 0
  %13 = load ptr, ptr %12, align 8
  %14 = icmp ne ptr %13, null
  br i1 %14, label %15, label %18

15:                                               ; preds = %11
  %16 = getelementptr inbounds %"class.zxing::Ref.21", ptr %5, i32 0, i32 0
  %17 = load ptr, ptr %16, align 8
  call void @_ZN5zxing7Counted7releaseEv(ptr noundef nonnull align 8 dereferenceable(12) %17)
  br label %18

18:                                               ; preds = %15, %11
  %19 = load ptr, ptr %4, align 8
  %20 = getelementptr inbounds %"class.zxing::Ref.21", ptr %5, i32 0, i32 0
  store ptr %19, ptr %20, align 8
  ret void
}

; Function Attrs: mustprogress nounwind uwtable
define linkonce_odr hidden void @_ZN5zxing3RefINS_6qrcode13FinderPatternEED2Ev(ptr noundef nonnull align 8 dereferenceable(8) %0) unnamed_addr #1 comdat align 2 {
  %2 = alloca ptr, align 8
  store ptr %0, ptr %2, align 8
  %3 = load ptr, ptr %2, align 8
  %4 = getelementptr inbounds %"class.zxing::Ref.21", ptr %3, i32 0, i32 0
  %5 = load ptr, ptr %4, align 8
  %6 = icmp ne ptr %5, null
  br i1 %6, label %7, label %10

7:                                                ; preds = %1
  %8 = getelementptr inbounds %"class.zxing::Ref.21", ptr %3, i32 0, i32 0
  %9 = load ptr, ptr %8, align 8
  call void @_ZN5zxing7Counted7releaseEv(ptr noundef nonnull align 8 dereferenceable(12) %9)
  br label %10

10:                                               ; preds = %7, %1
  ret void
}

; Function Attrs: mustprogress uwtable
define internal noundef zeroext i1 @_ZN5zxing6qrcode12_GLOBAL__N_111XComparatorclENS_3RefINS0_13FinderPatternEEES5_(ptr noundef nonnull align 1 dereferenceable(1) %0, ptr noundef %1, ptr noundef %2) #0 align 2 {
  %4 = alloca ptr, align 8
  %5 = alloca ptr, align 8
  %6 = alloca ptr, align 8
  store ptr %0, ptr %4, align 8
  store ptr %1, ptr %5, align 8
  store ptr %2, ptr %6, align 8
  %7 = call noundef ptr @_ZNK5zxing3RefINS_6qrcode13FinderPatternEEptEv(ptr noundef nonnull align 8 dereferenceable(8) %1)
  %8 = load ptr, ptr %7, align 8
  %9 = getelementptr inbounds ptr, ptr %8, i64 2
  %10 = load ptr, ptr %9, align 8
  %11 = call noundef float %10(ptr noundef nonnull align 8 dereferenceable(20) %7)
  %12 = call noundef ptr @_ZNK5zxing3RefINS_6qrcode13FinderPatternEEptEv(ptr noundef nonnull align 8 dereferenceable(8) %2)
  %13 = load ptr, ptr %12, align 8
  %14 = getelementptr inbounds ptr, ptr %13, i64 2
  %15 = load ptr, ptr %14, align 8
  %16 = call noundef float %15(ptr noundef nonnull align 8 dereferenceable(20) %12)
  %17 = fcmp olt float %11, %16
  ret i1 %17
}

; Function Attrs: mustprogress uwtable
define linkonce_odr hidden void @_ZN5zxing3RefINS_6qrcode13FinderPatternEEC2ERKS3_(ptr noundef nonnull align 8 dereferenceable(8) %0, ptr noundef nonnull align 8 dereferenceable(8) %1) unnamed_addr #0 comdat align 2 {
  %3 = alloca ptr, align 8
  %4 = alloca ptr, align 8
  store ptr %0, ptr %3, align 8
  store ptr %1, ptr %4, align 8
  %5 = load ptr, ptr %3, align 8
  %6 = getelementptr inbounds %"class.zxing::Ref.21", ptr %5, i32 0, i32 0
  store ptr null, ptr %6, align 8
  %7 = load ptr, ptr %4, align 8
  %8 = getelementptr inbounds %"class.zxing::Ref.21", ptr %7, i32 0, i32 0
  %9 = load ptr, ptr %8, align 8
  call void @_ZN5zxing3RefINS_6qrcode13FinderPatternEE5resetEPS2_(ptr noundef nonnull align 8 dereferenceable(8) %5, ptr noundef %9)
  ret void
}

; Function Attrs: mustprogress nounwind uwtable
define linkonce_odr hidden noundef nonnull align 8 dereferenceable(8) ptr @_ZNK9__gnu_cxx17__normal_iteratorIPN5zxing3RefINS1_6qrcode13FinderPatternEEESt6vectorIS5_SaIS5_EEEdeEv(ptr noundef nonnull align 8 dereferenceable(8) %0) #1 comdat align 2 {
  %2 = alloca ptr, align 8
  store ptr %0, ptr %2, align 8
  %3 = load ptr, ptr %2, align 8
  %4 = getelementptr inbounds %"class.__gnu_cxx::__normal_iterator.36", ptr %3, i32 0, i32 0
  %5 = load ptr, ptr %4, align 8
  ret ptr %5
}

; Function Attrs: mustprogress uwtable
define internal noundef zeroext i1 @_ZN9__gnu_cxx5__ops15_Iter_comp_iterIN5zxing6qrcode12_GLOBAL__N_111XComparatorEEclINS_17__normal_iteratorIPNS2_3RefINS3_13FinderPatternEEESt6vectorISB_SaISB_EEEESG_EEbT_T0_(ptr noundef nonnull align 1 dereferenceable(1) %0, ptr %1, ptr %2) #0 align 2 personality ptr @__gxx_personality_v0 {
  %4 = alloca %"class.__gnu_cxx::__normal_iterator.36", align 8
  %5 = alloca %"class.__gnu_cxx::__normal_iterator.36", align 8
  %6 = alloca ptr, align 8
  %7 = alloca %"class.zxing::Ref.21", align 8
  %8 = alloca %"class.zxing::Ref.21", align 8
  %9 = alloca ptr, align 8
  %10 = alloca i32, align 4
  %11 = getelementptr inbounds %"class.__gnu_cxx::__normal_iterator.36", ptr %4, i32 0, i32 0
  store ptr %1, ptr %11, align 8
  %12 = getelementptr inbounds %"class.__gnu_cxx::__normal_iterator.36", ptr %5, i32 0, i32 0
  store ptr %2, ptr %12, align 8
  store ptr %0, ptr %6, align 8
  %13 = load ptr, ptr %6, align 8
  %14 = getelementptr inbounds %"struct.__gnu_cxx::__ops::_Iter_comp_iter.86", ptr %13, i32 0, i32 0
  %15 = call noundef nonnull align 8 dereferenceable(8) ptr @_ZNK9__gnu_cxx17__normal_iteratorIPN5zxing3RefINS1_6qrcode13FinderPatternEEESt6vectorIS5_SaIS5_EEEdeEv(ptr noundef nonnull align 8 dereferenceable(8) %4) #12
  call void @_ZN5zxing3RefINS_6qrcode13FinderPatternEEC2ERKS3_(ptr noundef nonnull align 8 dereferenceable(8) %7, ptr noundef nonnull align 8 dereferenceable(8) %15)
  %16 = call noundef nonnull align 8 dereferenceable(8) ptr @_ZNK9__gnu_cxx17__normal_iteratorIPN5zxing3RefINS1_6qrcode13FinderPatternEEESt6vectorIS5_SaIS5_EEEdeEv(ptr noundef nonnull align 8 dereferenceable(8) %5) #12
  invoke void @_ZN5zxing3RefINS_6qrcode13FinderPatternEEC2ERKS3_(ptr noundef nonnull align 8 dereferenceable(8) %8, ptr noundef nonnull align 8 dereferenceable(8) %16)
          to label %17 unwind label %20

17:                                               ; preds = %3
  %18 = invoke noundef zeroext i1 @_ZN5zxing6qrcode12_GLOBAL__N_111XComparatorclENS_3RefINS0_13FinderPatternEEES5_(ptr noundef nonnull align 1 dereferenceable(1) %14, ptr noundef %7, ptr noundef %8)
          to label %19 unwind label %24

19:                                               ; preds = %17
  call void @_ZN5zxing3RefINS_6qrcode13FinderPatternEED2Ev(ptr noundef nonnull align 8 dereferenceable(8) %8) #12
  call void @_ZN5zxing3RefINS_6qrcode13FinderPatternEED2Ev(ptr noundef nonnull align 8 dereferenceable(8) %7) #12
  ret i1 %18

20:                                               ; preds = %3
  %21 = landingpad { ptr, i32 }
          cleanup
  %22 = extractvalue { ptr, i32 } %21, 0
  store ptr %22, ptr %9, align 8
  %23 = extractvalue { ptr, i32 } %21, 1
  store i32 %23, ptr %10, align 4
  br label %28

24:                                               ; preds = %17
  %25 = landingpad { ptr, i32 }
          cleanup
  %26 = extractvalue { ptr, i32 } %25, 0
  store ptr %26, ptr %9, align 8
  %27 = extractvalue { ptr, i32 } %25, 1
  store i32 %27, ptr %10, align 4
  call void @_ZN5zxing3RefINS_6qrcode13FinderPatternEED2Ev(ptr noundef nonnull align 8 dereferenceable(8) %8) #12
  br label %28

28:                                               ; preds = %24, %20
  call void @_ZN5zxing3RefINS_6qrcode13FinderPatternEED2Ev(ptr noundef nonnull align 8 dereferenceable(8) %7) #12
  br label %29

29:                                               ; preds = %28
  %30 = load ptr, ptr %9, align 8
  %31 = load i32, ptr %10, align 4
  %32 = insertvalue { ptr, i32 } poison, ptr %30, 0
  %33 = insertvalue { ptr, i32 } %32, i32 %31, 1
  resume { ptr, i32 } %33
}