; Function Attrs: mustprogress uwtable
define internal fastcc noundef zeroext i1 @_ZN9__gnu_cxx5__ops15_Iter_comp_iterIN5zxing6qrcode12_GLOBAL__N_111XComparatorEEclINS_17__normal_iteratorIPNS2_3RefINS3_13FinderPatternEEESt6vectorISB_SaISB_EEEESG_EEbT_T0_(ptr nocapture readonly %0, ptr nocapture readonly %1) unnamed_addr #0 align 2 personality ptr @__gxx_personality_v0 {
  %3 = load ptr, ptr %0, align 8
  %.not.i.i = icmp eq ptr %3, null
  br i1 %.not.i.i, label %_ZN5zxing3RefINS_6qrcode13FinderPatternEEC2ERKS3_.exit, label %4

4:                                                ; preds = %2
  %5 = getelementptr inbounds i8, ptr %3, i64 8
  %6 = load i32, ptr %5, align 8
  %7 = add i32 %6, 1
  store i32 %7, ptr %5, align 8
  br label %_ZN5zxing3RefINS_6qrcode13FinderPatternEEC2ERKS3_.exit

_ZN5zxing3RefINS_6qrcode13FinderPatternEEC2ERKS3_.exit: ; preds = %4, %2
  %8 = load ptr, ptr %1, align 8
  %.not.i.i4 = icmp eq ptr %8, null
  br i1 %.not.i.i4, label %_ZN5zxing3RefINS_6qrcode13FinderPatternEEC2ERKS3_.exit7, label %9

9:                                                ; preds = %_ZN5zxing3RefINS_6qrcode13FinderPatternEEC2ERKS3_.exit
  %10 = getelementptr inbounds i8, ptr %8, i64 8
  %11 = load i32, ptr %10, align 8
  %12 = add i32 %11, 1
  store i32 %12, ptr %10, align 8
  br label %_ZN5zxing3RefINS_6qrcode13FinderPatternEEC2ERKS3_.exit7

_ZN5zxing3RefINS_6qrcode13FinderPatternEEC2ERKS3_.exit7: ; preds = %_ZN5zxing3RefINS_6qrcode13FinderPatternEEC2ERKS3_.exit, %9
  %13 = load ptr, ptr %3, align 8
  %14 = getelementptr inbounds i8, ptr %13, i64 16
  %15 = load ptr, ptr %14, align 8
  %16 = invoke noundef float %15(ptr noundef nonnull align 8 dereferenceable(20) %3)
          to label %.noexc unwind label %40

.noexc:                                           ; preds = %_ZN5zxing3RefINS_6qrcode13FinderPatternEEC2ERKS3_.exit7
  %17 = load ptr, ptr %8, align 8
  %18 = getelementptr inbounds i8, ptr %17, i64 16
  %19 = load ptr, ptr %18, align 8
  %20 = invoke noundef float %19(ptr noundef nonnull align 8 dereferenceable(20) %8)
          to label %22 unwind label %.thread

.thread:                                          ; preds = %.noexc
  %21 = landingpad { ptr, i32 }
          cleanup
  br label %42

22:                                               ; preds = %.noexc
  %23 = getelementptr inbounds i8, ptr %8, i64 8
  %24 = load i32, ptr %23, align 8
  %25 = add i32 %24, -1
  store i32 %25, ptr %23, align 8
  %26 = icmp eq i32 %25, 0
  br i1 %26, label %27, label %_ZN5zxing3RefINS_6qrcode13FinderPatternEED2Ev.exit

27:                                               ; preds = %22
  store i32 -559026175, ptr %23, align 8
  %28 = load ptr, ptr %8, align 8
  %29 = getelementptr inbounds i8, ptr %28, i64 8
  %30 = load ptr, ptr %29, align 8
  tail call void %30(ptr noundef nonnull align 8 dereferenceable(12) %8) #22
  br label %_ZN5zxing3RefINS_6qrcode13FinderPatternEED2Ev.exit

_ZN5zxing3RefINS_6qrcode13FinderPatternEED2Ev.exit: ; preds = %27, %22
  %31 = getelementptr inbounds i8, ptr %3, i64 8
  %32 = load i32, ptr %31, align 8
  %33 = add i32 %32, -1
  store i32 %33, ptr %31, align 8
  %34 = icmp eq i32 %33, 0
  br i1 %34, label %35, label %_ZN5zxing3RefINS_6qrcode13FinderPatternEED2Ev.exit10

35:                                               ; preds = %_ZN5zxing3RefINS_6qrcode13FinderPatternEED2Ev.exit
  store i32 -559026175, ptr %31, align 8
  %36 = load ptr, ptr %3, align 8
  %37 = getelementptr inbounds i8, ptr %36, i64 8
  %38 = load ptr, ptr %37, align 8
  tail call void %38(ptr noundef nonnull align 8 dereferenceable(12) %3) #22
  br label %_ZN5zxing3RefINS_6qrcode13FinderPatternEED2Ev.exit10

_ZN5zxing3RefINS_6qrcode13FinderPatternEED2Ev.exit10: ; preds = %_ZN5zxing3RefINS_6qrcode13FinderPatternEED2Ev.exit, %35
  %39 = fcmp olt float %16, %20
  ret i1 %39

40:                                               ; preds = %_ZN5zxing3RefINS_6qrcode13FinderPatternEEC2ERKS3_.exit7
  %41 = landingpad { ptr, i32 }
          cleanup
  br i1 %.not.i.i4, label %_ZN5zxing3RefINS_6qrcode13FinderPatternEED2Ev.exit12, label %42

42:                                               ; preds = %.thread, %40
  %43 = phi { ptr, i32 } [ %21, %.thread ], [ %41, %40 ]
  %44 = getelementptr inbounds i8, ptr %8, i64 8
  %45 = load i32, ptr %44, align 8
  %46 = add i32 %45, -1
  store i32 %46, ptr %44, align 8
  %47 = icmp eq i32 %46, 0
  br i1 %47, label %48, label %_ZN5zxing3RefINS_6qrcode13FinderPatternEED2Ev.exit12

48:                                               ; preds = %42
  store i32 -559026175, ptr %44, align 8
  %49 = load ptr, ptr %8, align 8
  %50 = getelementptr inbounds i8, ptr %49, i64 8
  %51 = load ptr, ptr %50, align 8
  tail call void %51(ptr noundef nonnull align 8 dereferenceable(12) %8) #22
  br label %_ZN5zxing3RefINS_6qrcode13FinderPatternEED2Ev.exit12

_ZN5zxing3RefINS_6qrcode13FinderPatternEED2Ev.exit12: ; preds = %40, %42, %48
  %.pn = phi { ptr, i32 } [ %41, %40 ], [ %43, %42 ], [ %43, %48 ]
  %52 = getelementptr inbounds i8, ptr %3, i64 8
  %53 = load i32, ptr %52, align 8
  %54 = add i32 %53, -1
  store i32 %54, ptr %52, align 8
  %55 = icmp eq i32 %54, 0
  br i1 %55, label %56, label %_ZN5zxing3RefINS_6qrcode13FinderPatternEED2Ev.exit14

56:                                               ; preds = %_ZN5zxing3RefINS_6qrcode13FinderPatternEED2Ev.exit12
  store i32 -559026175, ptr %52, align 8
  %57 = load ptr, ptr %3, align 8
  %58 = getelementptr inbounds i8, ptr %57, i64 8
  %59 = load ptr, ptr %58, align 8
  tail call void %59(ptr noundef nonnull align 8 dereferenceable(12) %3) #22
  br label %_ZN5zxing3RefINS_6qrcode13FinderPatternEED2Ev.exit14

_ZN5zxing3RefINS_6qrcode13FinderPatternEED2Ev.exit14: ; preds = %_ZN5zxing3RefINS_6qrcode13FinderPatternEED2Ev.exit12, %56
  resume { ptr, i32 } %.pn
}